target datalayout = "e-m:e-p270:32:32-p271:32:32-p272:64:64-i64:64-i128:128-f80:128-n8:16:32:64-S128"
target triple = "x86_64-pc-linux-gnu"

%struct.ErrorData = type { i32, i8, i8, i8, i8, ptr, i32, ptr, ptr, ptr, i32, ptr, ptr, ptr, ptr, ptr, ptr, ptr, ptr, ptr, ptr, ptr, ptr, i32, i32, ptr, i32, ptr }

; Function Attrs: nounwind uwtable
define internal void @FreeErrorDataContents(ptr noundef %0) #0 {
  %2 = alloca ptr, align 8
  store ptr %0, ptr %2, align 8
  %3 = load ptr, ptr %2, align 8
  %4 = getelementptr inbounds nuw %struct.ErrorData, ptr %3, i32 0, i32 11
  %5 = load ptr, ptr %4, align 8
  %6 = icmp ne ptr %5, null
  br i1 %6, label %7, label %11

7:                                                ; preds = %1
  %8 = load ptr, ptr %2, align 8
  %9 = getelementptr inbounds nuw %struct.ErrorData, ptr %8, i32 0, i32 11
  %10 = load ptr, ptr %9, align 8
  call void @pfree(ptr noundef %10)
  br label %11

11:                                               ; preds = %7, %1
  %12 = load ptr, ptr %2, align 8
  %13 = getelementptr inbounds nuw %struct.ErrorData, ptr %12, i32 0, i32 12
  %14 = load ptr, ptr %13, align 8
  %15 = icmp ne ptr %14, null
  br i1 %15, label %16, label %20

16:                                               ; preds = %11
  %17 = load ptr, ptr %2, align 8
  %18 = getelementptr inbounds nuw %struct.ErrorData, ptr %17, i32 0, i32 12
  %19 = load ptr, ptr %18, align 8
  call void @pfree(ptr noundef %19)
  br label %20

20:                                               ; preds = %16, %11
  %21 = load ptr, ptr %2, align 8
  %22 = getelementptr inbounds nuw %struct.ErrorData, ptr %21, i32 0, i32 13
  %23 = load ptr, ptr %22, align 8
  %24 = icmp ne ptr %23, null
  br i1 %24, label %25, label %29

25:                                               ; preds = %20
  %26 = load ptr, ptr %2, align 8
  %27 = getelementptr inbounds nuw %struct.ErrorData, ptr %26, i32 0, i32 13
  %28 = load ptr, ptr %27, align 8
  call void @pfree(ptr noundef %28)
  br label %29

29:                                               ; preds = %25, %20
  %30 = load ptr, ptr %2, align 8
  %31 = getelementptr inbounds nuw %struct.ErrorData, ptr %30, i32 0, i32 14
  %32 = load ptr, ptr %31, align 8
  %33 = icmp ne ptr %32, null
  br i1 %33, label %34, label %38

34:                                               ; preds = %29
  %35 = load ptr, ptr %2, align 8
  %36 = getelementptr inbounds nuw %struct.ErrorData, ptr %35, i32 0, i32 14
  %37 = load ptr, ptr %36, align 8
  call void @pfree(ptr noundef %37)
  br label %38

38:                                               ; preds = %34, %29
  %39 = load ptr, ptr %2, align 8
  %40 = getelementptr inbounds nuw %struct.ErrorData, ptr %39, i32 0, i32 15
  %41 = load ptr, ptr %40, align 8
  %42 = icmp ne ptr %41, null
  br i1 %42, label %43, label %47

43:                                               ; preds = %38
  %44 = load ptr, ptr %2, align 8
  %45 = getelementptr inbounds nuw %struct.ErrorData, ptr %44, i32 0, i32 15
  %46 = load ptr, ptr %45, align 8
  call void @pfree(ptr noundef %46)
  br label %47

47:                                               ; preds = %43, %38
  %48 = load ptr, ptr %2, align 8
  %49 = getelementptr inbounds nuw %struct.ErrorData, ptr %48, i32 0, i32 16
  %50 = load ptr, ptr %49, align 8
  %51 = icmp ne ptr %50, null
  br i1 %51, label %52, label %56

52:                                               ; preds = %47
  %53 = load ptr, ptr %2, align 8
  %54 = getelementptr inbounds nuw %struct.ErrorData, ptr %53, i32 0, i32 16
  %55 = load ptr, ptr %54, align 8
  call void @pfree(ptr noundef %55)
  br label %56

56:                                               ; preds = %52, %47
  %57 = load ptr, ptr %2, align 8
  %58 = getelementptr inbounds nuw %struct.ErrorData, ptr %57, i32 0, i32 18
  %59 = load ptr, ptr %58, align 8
  %60 = icmp ne ptr %59, null
  br i1 %60, label %61, label %65

61:                                               ; preds = %56
  %62 = load ptr, ptr %2, align 8
  %63 = getelementptr inbounds nuw %struct.ErrorData, ptr %62, i32 0, i32 18
  %64 = load ptr, ptr %63, align 8
  call void @pfree(ptr noundef %64)
  br label %65

65:                                               ; preds = %61, %56
  %66 = load ptr, ptr %2, align 8
  %67 = getelementptr inbounds nuw %struct.ErrorData, ptr %66, i32 0, i32 19
  %68 = load ptr, ptr %67, align 8
  %69 = icmp ne ptr %68, null
  br i1 %69, label %70, label %74

70:                                               ; preds = %65
  %71 = load ptr, ptr %2, align 8
  %72 = getelementptr inbounds nuw %struct.ErrorData, ptr %71, i32 0, i32 19
  %73 = load ptr, ptr %72, align 8
  call void @pfree(ptr noundef %73)
  br label %74

74:                                               ; preds = %70, %65
  %75 = load ptr, ptr %2, align 8
  %76 = getelementptr inbounds nuw %struct.ErrorData, ptr %75, i32 0, i32 20
  %77 = load ptr, ptr %76, align 8
  %78 = icmp ne ptr %77, null
  br i1 %78, label %79, label %83

79:                                               ; preds = %74
  %80 = load ptr, ptr %2, align 8
  %81 = getelementptr inbounds nuw %struct.ErrorData, ptr %80, i32 0, i32 20
  %82 = load ptr, ptr %81, align 8
  call void @pfree(ptr noundef %82)
  br label %83

83:                                               ; preds = %79, %74
  %84 = load ptr, ptr %2, align 8
  %85 = getelementptr inbounds nuw %struct.ErrorData, ptr %84, i32 0, i32 21
  %86 = load ptr, ptr %85, align 8
  %87 = icmp ne ptr %86, null
  br i1 %87, label %88, label %92

88:                                               ; preds = %83
  %89 = load ptr, ptr %2, align 8
  %90 = getelementptr inbounds nuw %struct.ErrorData, ptr %89, i32 0, i32 21
  %91 = load ptr, ptr %90, align 8
  call void @pfree(ptr noundef %91)
  br label %92

92:                                               ; preds = %88, %83
  %93 = load ptr, ptr %2, align 8
  %94 = getelementptr inbounds nuw %struct.ErrorData, ptr %93, i32 0, i32 22
  %95 = load ptr, ptr %94, align 8
  %96 = icmp ne ptr %95, null
  br i1 %96, label %97, label %101

97:                                               ; preds = %92
  %98 = load ptr, ptr %2, align 8
  %99 = getelementptr inbounds nuw %struct.ErrorData, ptr %98, i32 0, i32 22
  %100 = load ptr, ptr %99, align 8
  call void @pfree(ptr noundef %100)
  br label %101

101:                                              ; preds = %97, %92
  %102 = load ptr, ptr %2, align 8
  %103 = getelementptr inbounds nuw %struct.ErrorData, ptr %102, i32 0, i32 25
  %104 = load ptr, ptr %103, align 8
  %105 = icmp ne ptr %104, null
  br i1 %105, label %106, label %110

106:                                              ; preds = %101
  %107 = load ptr, ptr %2, align 8
  %108 = getelementptr inbounds nuw %struct.ErrorData, ptr %107, i32 0, i32 25
  %109 = load ptr, ptr %108, align 8
  call void @pfree(ptr noundef %109)
  br label %110

110:                                              ; preds = %106, %101
  ret void
}