; Function Attrs: nounwind uwtable
define internal fastcc void @FreeErrorDataContents(ptr noundef readonly captures(none) %0) unnamed_addr #3 {
  %2 = getelementptr inbounds nuw i8, ptr %0, i64 56
  %3 = load ptr, ptr %2, align 8
  %.not = icmp eq ptr %3, null
  br i1 %.not, label %5, label %4

4:                                                ; preds = %1
  tail call void @pfree(ptr noundef nonnull %3) #32
  br label %5

5:                                                ; preds = %4, %1
  %6 = getelementptr inbounds nuw i8, ptr %0, i64 64
  %7 = load ptr, ptr %6, align 8
  %.not35 = icmp eq ptr %7, null
  br i1 %.not35, label %9, label %8

8:                                                ; preds = %5
  tail call void @pfree(ptr noundef nonnull %7) #32
  br label %9

9:                                                ; preds = %8, %5
  %10 = getelementptr inbounds nuw i8, ptr %0, i64 72
  %11 = load ptr, ptr %10, align 8
  %.not36 = icmp eq ptr %11, null
  br i1 %.not36, label %13, label %12

12:                                               ; preds = %9
  tail call void @pfree(ptr noundef nonnull %11) #32
  br label %13

13:                                               ; preds = %12, %9
  %14 = getelementptr inbounds nuw i8, ptr %0, i64 80
  %15 = load ptr, ptr %14, align 8
  %.not37 = icmp eq ptr %15, null
  br i1 %.not37, label %17, label %16

16:                                               ; preds = %13
  tail call void @pfree(ptr noundef nonnull %15) #32
  br label %17

17:                                               ; preds = %16, %13
  %18 = getelementptr inbounds nuw i8, ptr %0, i64 88
  %19 = load ptr, ptr %18, align 8
  %.not38 = icmp eq ptr %19, null
  br i1 %.not38, label %21, label %20

20:                                               ; preds = %17
  tail call void @pfree(ptr noundef nonnull %19) #32
  br label %21

21:                                               ; preds = %20, %17
  %22 = getelementptr inbounds nuw i8, ptr %0, i64 96
  %23 = load ptr, ptr %22, align 8
  %.not39 = icmp eq ptr %23, null
  br i1 %.not39, label %25, label %24

24:                                               ; preds = %21
  tail call void @pfree(ptr noundef nonnull %23) #32
  br label %25

25:                                               ; preds = %24, %21
  %26 = getelementptr inbounds nuw i8, ptr %0, i64 112
  %27 = load ptr, ptr %26, align 8
  %.not40 = icmp eq ptr %27, null
  br i1 %.not40, label %29, label %28

28:                                               ; preds = %25
  tail call void @pfree(ptr noundef nonnull %27) #32
  br label %29

29:                                               ; preds = %28, %25
  %30 = getelementptr inbounds nuw i8, ptr %0, i64 120
  %31 = load ptr, ptr %30, align 8
  %.not41 = icmp eq ptr %31, null
  br i1 %.not41, label %33, label %32

32:                                               ; preds = %29
  tail call void @pfree(ptr noundef nonnull %31) #32
  br label %33

33:                                               ; preds = %32, %29
  %34 = getelementptr inbounds nuw i8, ptr %0, i64 128
  %35 = load ptr, ptr %34, align 8
  %.not42 = icmp eq ptr %35, null
  br i1 %.not42, label %37, label %36

36:                                               ; preds = %33
  tail call void @pfree(ptr noundef nonnull %35) #32
  br label %37

37:                                               ; preds = %36, %33
  %38 = getelementptr inbounds nuw i8, ptr %0, i64 136
  %39 = load ptr, ptr %38, align 8
  %.not43 = icmp eq ptr %39, null
  br i1 %.not43, label %41, label %40

40:                                               ; preds = %37
  tail call void @pfree(ptr noundef nonnull %39) #32
  br label %41

41:                                               ; preds = %40, %37
  %42 = getelementptr inbounds nuw i8, ptr %0, i64 144
  %43 = load ptr, ptr %42, align 8
  %.not44 = icmp eq ptr %43, null
  br i1 %.not44, label %45, label %44

44:                                               ; preds = %41
  tail call void @pfree(ptr noundef nonnull %43) #32
  br label %45

45:                                               ; preds = %44, %41
  %46 = getelementptr inbounds nuw i8, ptr %0, i64 160
  %47 = load ptr, ptr %46, align 8
  %.not45 = icmp eq ptr %47, null
  br i1 %.not45, label %49, label %48

48:                                               ; preds = %45
  tail call void @pfree(ptr noundef nonnull %47) #32
  br label %49

49:                                               ; preds = %48, %45
  ret void
}